target datalayout = "e-m:e-p270:32:32-p271:32:32-p272:64:64-i64:64-i128:128-f80:128-n8:16:32:64-S128"
target triple = "x86_64-pc-linux-gnu"

%struct.OptContext = type { ptr, ptr, %struct.TCGTempSet, %struct.RBRootLeftCached, %struct.anon, i32 }
%struct.TCGTempSet = type { [8 x i64] }
%struct.RBRootLeftCached = type { %struct.RBRoot, ptr }
%struct.RBRoot = type { ptr }
%struct.anon = type { ptr, ptr }
%struct.TCGContext = type { ptr, ptr, ptr, ptr, ptr, i32, i32, i32, i32, i32, i32, i32, i8, i8, i8, i32, i32, i64, i64, i64, ptr, ptr, ptr, ptr, ptr, i64, ptr, ptr, ptr, ptr, %struct.anon.0, ptr, ptr, ptr, ptr, ptr, [6 x ptr], [6 x %struct.TCGTempSet], [512 x %struct.TCGTemp], %union.anon, %union.anon, %struct.anon.1, ptr, [32 x ptr], [512 x i16], ptr, [1 x %struct.__jmp_buf_tag] }
%struct.anon.0 = type { ptr, ptr }
%struct.TCGTemp = type { i64, i64, ptr, i64, ptr, i64, ptr }
%union.anon = type { %struct.QTailQLink }
%struct.QTailQLink = type { ptr, ptr }
%struct.anon.1 = type { ptr, ptr }
%struct.__jmp_buf_tag = type { [8 x i64], i32, %struct.__sigset_t }
%struct.__sigset_t = type { [16 x i64] }
%struct.TempOptInfo = type { i8, ptr, ptr, %struct.anon.3, i64, i64, i64 }
%struct.anon.3 = type { ptr, ptr }

@tcg_ctx = external thread_local global ptr, align 8

; Function Attrs: inlinehint nounwind sspstrong uwtable
define internal i32 @clrsb64(i64 noundef %0) #3 {
  %2 = alloca i64, align 8
  store i64 %0, ptr %2, align 8
  %3 = load i64, ptr %2, align 8
  %4 = icmp slt i64 %3, 0
  %5 = xor i64 %3, -1
  %6 = select i1 %4, i64 %5, i64 %3
  %7 = call i64 @llvm.ctlz.i64(i64 %6, i1 false)
  %8 = sub i64 %7, 1
  %9 = trunc i64 %8 to i32
  ret i32 %9
}

; Function Attrs: inlinehint nounwind sspstrong uwtable
define internal ptr @tcg_malloc(i32 noundef %0) #3 {
  %2 = alloca ptr, align 8
  %3 = alloca i32, align 4
  %4 = alloca ptr, align 8
  %5 = alloca ptr, align 8
  %6 = alloca ptr, align 8
  %7 = alloca i32, align 4
  store i32 %0, ptr %3, align 4
  call void @llvm.lifetime.start.p0(i64 8, ptr %4) #13
  %8 = call align 8 ptr @llvm.threadlocal.address.p0(ptr align 8 @tcg_ctx)
  %9 = load ptr, ptr %8, align 8
  store ptr %9, ptr %4, align 8
  call void @llvm.lifetime.start.p0(i64 8, ptr %5) #13
  store ptr null, ptr %5, align 8, !annotation !4
  call void @llvm.lifetime.start.p0(i64 8, ptr %6) #13
  store ptr null, ptr %6, align 8, !annotation !4
  %10 = load i32, ptr %3, align 4
  %11 = add i32 %10, 8
  %12 = sub i32 %11, 1
  %13 = sdiv i32 %12, 8
  %14 = mul i32 %13, 8
  store i32 %14, ptr %3, align 4
  %15 = load ptr, ptr %4, align 8
  %16 = getelementptr inbounds nuw %struct.TCGContext, ptr %15, i32 0, i32 0
  %17 = load ptr, ptr %16, align 8
  store ptr %17, ptr %5, align 8
  %18 = load ptr, ptr %5, align 8
  %19 = load i32, ptr %3, align 4
  %20 = sext i32 %19 to i64
  %21 = getelementptr inbounds i8, ptr %18, i64 %20
  store ptr %21, ptr %6, align 8
  %22 = load ptr, ptr %6, align 8
  %23 = load ptr, ptr %4, align 8
  %24 = getelementptr inbounds nuw %struct.TCGContext, ptr %23, i32 0, i32 1
  %25 = load ptr, ptr %24, align 8
  %26 = icmp ugt ptr %22, %25
  %27 = xor i1 %26, true
  %28 = xor i1 %27, true
  %29 = zext i1 %28 to i32
  %30 = sext i32 %29 to i64
  %31 = call i64 @llvm.expect.i64(i64 %30, i64 0)
  %32 = icmp ne i64 %31, 0
  br i1 %32, label %33, label %38

33:                                               ; preds = %1
  %34 = call align 8 ptr @llvm.threadlocal.address.p0(ptr align 8 @tcg_ctx)
  %35 = load ptr, ptr %34, align 8
  %36 = load i32, ptr %3, align 4
  %37 = call ptr @tcg_malloc_internal(ptr noundef %35, i32 noundef %36)
  store ptr %37, ptr %2, align 8
  store i32 1, ptr %7, align 4
  br label %43

38:                                               ; preds = %1
  %39 = load ptr, ptr %6, align 8
  %40 = load ptr, ptr %4, align 8
  %41 = getelementptr inbounds nuw %struct.TCGContext, ptr %40, i32 0, i32 0
  store ptr %39, ptr %41, align 8
  %42 = load ptr, ptr %5, align 8
  store ptr %42, ptr %2, align 8
  store i32 1, ptr %7, align 4
  br label %43

43:                                               ; preds = %38, %33
  call void @llvm.lifetime.end.p0(i64 8, ptr %6) #13
  call void @llvm.lifetime.end.p0(i64 8, ptr %5) #13
  call void @llvm.lifetime.end.p0(i64 8, ptr %4) #13
  %44 = load ptr, ptr %2, align 8
  ret ptr %44
}

; Function Attrs: inlinehint nounwind sspstrong uwtable
define internal void @set_bit(i64 noundef %0, ptr noundef %1) #3 {
  %3 = alloca i64, align 8
  %4 = alloca ptr, align 8
  %5 = alloca i64, align 8
  %6 = alloca ptr, align 8
  store i64 %0, ptr %3, align 8
  store ptr %1, ptr %4, align 8
  call void @llvm.lifetime.start.p0(i64 8, ptr %5) #13
  %7 = load i64, ptr %3, align 8
  %8 = urem i64 %7, 64
  %9 = shl i64 1, %8
  store i64 %9, ptr %5, align 8
  call void @llvm.lifetime.start.p0(i64 8, ptr %6) #13
  %10 = load ptr, ptr %4, align 8
  %11 = load i64, ptr %3, align 8
  %12 = udiv i64 %11, 64
  %13 = getelementptr inbounds nuw i64, ptr %10, i64 %12
  store ptr %13, ptr %6, align 8
  %14 = load i64, ptr %5, align 8
  %15 = load ptr, ptr %6, align 8
  %16 = load i64, ptr %15, align 8
  %17 = or i64 %16, %14
  store i64 %17, ptr %15, align 8
  call void @llvm.lifetime.end.p0(i64 8, ptr %6) #13
  call void @llvm.lifetime.end.p0(i64 8, ptr %5) #13
  ret void
}

; Function Attrs: inlinehint nounwind sspstrong uwtable
define internal i32 @test_bit(i64 noundef %0, ptr noundef %1) #3 {
  %3 = alloca i64, align 8
  %4 = alloca ptr, align 8
  store i64 %0, ptr %3, align 8
  store ptr %1, ptr %4, align 8
  %5 = load ptr, ptr %4, align 8
  %6 = load i64, ptr %3, align 8
  %7 = udiv i64 %6, 64
  %8 = getelementptr inbounds nuw i64, ptr %5, i64 %7
  %9 = load i64, ptr %8, align 8
  %10 = load i64, ptr %3, align 8
  %11 = and i64 %10, 63
  %12 = lshr i64 %9, %11
  %13 = and i64 1, %12
  %14 = trunc i64 %13 to i32
  ret i32 %14
}

; Function Attrs: inlinehint nounwind sspstrong uwtable
define internal i64 @temp_idx(ptr noundef %0) #3 {
  %2 = alloca ptr, align 8
  store ptr %0, ptr %2, align 8
  %3 = load ptr, ptr %2, align 8
  %4 = call align 8 ptr @llvm.threadlocal.address.p0(ptr align 8 @tcg_ctx)
  %5 = load ptr, ptr %4, align 8
  %6 = getelementptr inbounds nuw %struct.TCGContext, ptr %5, i32 0, i32 38
  %7 = getelementptr inbounds [512 x %struct.TCGTemp], ptr %6, i64 0, i64 0
  %8 = ptrtoint ptr %3 to i64
  %9 = ptrtoint ptr %7 to i64
  %10 = sub i64 %8, %9
  %11 = sdiv exact i64 %10, 56
  ret i64 %11
}

; Function Attrs: inlinehint nounwind sspstrong uwtable
define internal i64 @temp_arg(ptr noundef %0) #3 {
  %2 = alloca ptr, align 8
  store ptr %0, ptr %2, align 8
  %3 = load ptr, ptr %2, align 8
  %4 = ptrtoint ptr %3 to i64
  ret i64 %4
}

; Function Attrs: nounwind sspstrong uwtable
define internal void @init_ts_info(ptr noundef %0, ptr noundef %1) #0 {
  %3 = alloca ptr, align 8
  %4 = alloca ptr, align 8
  %5 = alloca i64, align 8
  %6 = alloca ptr, align 8
  %7 = alloca i32, align 4
  store ptr %0, ptr %3, align 8
  store ptr %1, ptr %4, align 8
  call void @llvm.lifetime.start.p0(i64 8, ptr %5) #13
  %8 = load ptr, ptr %4, align 8
  %9 = call i64 @temp_idx(ptr noundef %8)
  store i64 %9, ptr %5, align 8
  call void @llvm.lifetime.start.p0(i64 8, ptr %6) #13
  store ptr null, ptr %6, align 8, !annotation !4
  %10 = load i64, ptr %5, align 8
  %11 = load ptr, ptr %3, align 8
  %12 = getelementptr inbounds nuw %struct.OptContext, ptr %11, i32 0, i32 2
  %13 = getelementptr inbounds nuw %struct.TCGTempSet, ptr %12, i32 0, i32 0
  %14 = getelementptr inbounds [8 x i64], ptr %13, i64 0, i64 0
  %15 = call i32 @test_bit(i64 noundef %10, ptr noundef %14)
  %16 = icmp ne i32 %15, 0
  br i1 %16, label %17, label %18

17:                                               ; preds = %2
  store i32 1, ptr %7, align 4
  br label %88

18:                                               ; preds = %2
  %19 = load i64, ptr %5, align 8
  %20 = load ptr, ptr %3, align 8
  %21 = getelementptr inbounds nuw %struct.OptContext, ptr %20, i32 0, i32 2
  %22 = getelementptr inbounds nuw %struct.TCGTempSet, ptr %21, i32 0, i32 0
  %23 = getelementptr inbounds [8 x i64], ptr %22, i64 0, i64 0
  call void @set_bit(i64 noundef %19, ptr noundef %23)
  %24 = load ptr, ptr %4, align 8
  %25 = getelementptr inbounds nuw %struct.TCGTemp, ptr %24, i32 0, i32 6
  %26 = load ptr, ptr %25, align 8
  store ptr %26, ptr %6, align 8
  %27 = load ptr, ptr %6, align 8
  %28 = icmp eq ptr %27, null
  br i1 %28, label %29, label %34

29:                                               ; preds = %18
  %30 = call ptr @tcg_malloc(i32 noundef 64)
  store ptr %30, ptr %6, align 8
  %31 = load ptr, ptr %6, align 8
  %32 = load ptr, ptr %4, align 8
  %33 = getelementptr inbounds nuw %struct.TCGTemp, ptr %32, i32 0, i32 6
  store ptr %31, ptr %33, align 8
  br label %34

34:                                               ; preds = %29, %18
  %35 = load ptr, ptr %4, align 8
  %36 = load ptr, ptr %6, align 8
  %37 = getelementptr inbounds nuw %struct.TempOptInfo, ptr %36, i32 0, i32 2
  store ptr %35, ptr %37, align 8
  %38 = load ptr, ptr %4, align 8
  %39 = load ptr, ptr %6, align 8
  %40 = getelementptr inbounds nuw %struct.TempOptInfo, ptr %39, i32 0, i32 1
  store ptr %38, ptr %40, align 8
  br label %41

41:                                               ; preds = %34
  %42 = load ptr, ptr %6, align 8
  %43 = getelementptr inbounds nuw %struct.TempOptInfo, ptr %42, i32 0, i32 3
  %44 = getelementptr inbounds nuw %struct.anon.3, ptr %43, i32 0, i32 0
  store ptr null, ptr %44, align 8
  %45 = load ptr, ptr %6, align 8
  %46 = getelementptr inbounds nuw %struct.TempOptInfo, ptr %45, i32 0, i32 3
  %47 = getelementptr inbounds nuw %struct.anon.3, ptr %46, i32 0, i32 0
  %48 = load ptr, ptr %6, align 8
  %49 = getelementptr inbounds nuw %struct.TempOptInfo, ptr %48, i32 0, i32 3
  %50 = getelementptr inbounds nuw %struct.anon.3, ptr %49, i32 0, i32 1
  store ptr %47, ptr %50, align 8
  br label %51

51:                                               ; preds = %41
  br label %52

52:                                               ; preds = %51
  %53 = load ptr, ptr %4, align 8
  %54 = load i64, ptr %53, align 8
  %55 = lshr i64 %54, 32
  %56 = and i64 %55, 7
  %57 = trunc i64 %56 to i32
  %58 = icmp eq i32 %57, 4
  br i1 %58, label %59, label %80

59:                                               ; preds = %52
  %60 = load ptr, ptr %6, align 8
  %61 = getelementptr inbounds nuw %struct.TempOptInfo, ptr %60, i32 0, i32 0
  store i8 1, ptr %61, align 8
  %62 = load ptr, ptr %4, align 8
  %63 = getelementptr inbounds nuw %struct.TCGTemp, ptr %62, i32 0, i32 1
  %64 = load i64, ptr %63, align 8
  %65 = load ptr, ptr %6, align 8
  %66 = getelementptr inbounds nuw %struct.TempOptInfo, ptr %65, i32 0, i32 4
  store i64 %64, ptr %66, align 8
  %67 = load ptr, ptr %4, align 8
  %68 = getelementptr inbounds nuw %struct.TCGTemp, ptr %67, i32 0, i32 1
  %69 = load i64, ptr %68, align 8
  %70 = load ptr, ptr %6, align 8
  %71 = getelementptr inbounds nuw %struct.TempOptInfo, ptr %70, i32 0, i32 5
  store i64 %69, ptr %71, align 8
  %72 = load ptr, ptr %4, align 8
  %73 = getelementptr inbounds nuw %struct.TCGTemp, ptr %72, i32 0, i32 1
  %74 = load i64, ptr %73, align 8
  %75 = call i32 @clrsb64(i64 noundef %74)
  %76 = zext i32 %75 to i64
  %77 = ashr i64 -9223372036854775808, %76
  %78 = load ptr, ptr %6, align 8
  %79 = getelementptr inbounds nuw %struct.TempOptInfo, ptr %78, i32 0, i32 6
  store i64 %77, ptr %79, align 8
  br label %87

80:                                               ; preds = %52
  %81 = load ptr, ptr %6, align 8
  %82 = getelementptr inbounds nuw %struct.TempOptInfo, ptr %81, i32 0, i32 0
  store i8 0, ptr %82, align 8
  %83 = load ptr, ptr %6, align 8
  %84 = getelementptr inbounds nuw %struct.TempOptInfo, ptr %83, i32 0, i32 5
  store i64 -1, ptr %84, align 8
  %85 = load ptr, ptr %6, align 8
  %86 = getelementptr inbounds nuw %struct.TempOptInfo, ptr %85, i32 0, i32 6
  store i64 0, ptr %86, align 8
  br label %87

87:                                               ; preds = %80, %59
  store i32 0, ptr %7, align 4
  br label %88

88:                                               ; preds = %87, %17
  call void @llvm.lifetime.end.p0(i64 8, ptr %6) #13
  call void @llvm.lifetime.end.p0(i64 8, ptr %5) #13
  %89 = load i32, ptr %7, align 4
  switch i32 %89, label %91 [
    i32 0, label %90
    i32 1, label %90
  ]

90:                                               ; preds = %88, %88
  ret void

91:                                               ; preds = %88
  unreachable
}

; Function Attrs: nounwind sspstrong uwtable
define internal i64 @arg_new_constant(ptr noundef %0, i64 noundef %1) #0 {
  %3 = alloca ptr, align 8
  %4 = alloca i64, align 8
  %5 = alloca i32, align 4
  %6 = alloca ptr, align 8
  store ptr %0, ptr %3, align 8
  store i64 %1, ptr %4, align 8
  call void @llvm.lifetime.start.p0(i64 4, ptr %5) #13
  %7 = load ptr, ptr %3, align 8
  %8 = getelementptr inbounds nuw %struct.OptContext, ptr %7, i32 0, i32 5
  %9 = load i32, ptr %8, align 8
  store i32 %9, ptr %5, align 4
  call void @llvm.lifetime.start.p0(i64 8, ptr %6) #13
  store ptr null, ptr %6, align 8, !annotation !4
  %10 = load i32, ptr %5, align 4
  %11 = icmp eq i32 %10, 0
  br i1 %11, label %12, label %16

12:                                               ; preds = %2
  %13 = load i64, ptr %4, align 8
  %14 = trunc i64 %13 to i32
  %15 = sext i32 %14 to i64
  store i64 %15, ptr %4, align 8
  br label %16

16:                                               ; preds = %12, %2
  %17 = load i32, ptr %5, align 4
  %18 = load i64, ptr %4, align 8
  %19 = call ptr @tcg_constant_internal(i32 noundef %17, i64 noundef %18)
  store ptr %19, ptr %6, align 8
  %20 = load ptr, ptr %3, align 8
  %21 = load ptr, ptr %6, align 8
  call void @init_ts_info(ptr noundef %20, ptr noundef %21)
  %22 = load ptr, ptr %6, align 8
  %23 = call i64 @temp_arg(ptr noundef %22)
  call void @llvm.lifetime.end.p0(i64 8, ptr %6) #13
  call void @llvm.lifetime.end.p0(i64 4, ptr %5) #13
  ret i64 %23
}