; Function Attrs: nounwind sspstrong uwtable
define internal fastcc i64 @arg_new_constant(ptr noundef nonnull captures(none) %0, i64 noundef %1) unnamed_addr #0 {
  %3 = getelementptr inbounds nuw i8, ptr %0, i64 112
  %4 = load i32, ptr %3, align 8
  %5 = icmp eq i32 %4, 0
  %sext = shl i64 %1, 32
  %6 = ashr exact i64 %sext, 32
  %.0 = select i1 %5, i64 %6, i64 %1
  %7 = tail call ptr @tcg_constant_internal(i32 noundef %4, i64 noundef %.0) #9
  %8 = tail call align 8 ptr @llvm.threadlocal.address.p0(ptr align 8 @tcg_ctx)
  %9 = load ptr, ptr %8, align 8
  %10 = getelementptr inbounds nuw i8, ptr %9, i64 672
  %11 = ptrtoint ptr %7 to i64
  %12 = ptrtoint ptr %10 to i64
  %13 = sub i64 %11, %12
  %14 = sdiv exact i64 %13, 56
  %15 = getelementptr inbounds nuw i8, ptr %0, i64 16
  %16 = lshr i64 %14, 6
  %17 = getelementptr inbounds nuw i64, ptr %15, i64 %16
  %18 = load i64, ptr %17, align 8
  %19 = and i64 %14, 63
  %20 = shl nuw i64 1, %19
  %21 = and i64 %20, %18
  %.not.i = icmp eq i64 %21, 0
  br i1 %.not.i, label %22, label %init_ts_info.exit

22:                                               ; preds = %2
  %23 = or i64 %20, %18
  store i64 %23, ptr %17, align 8
  %24 = getelementptr inbounds nuw i8, ptr %7, i64 48
  %25 = load ptr, ptr %24, align 8
  %26 = icmp eq ptr %25, null
  br i1 %26, label %27, label %37

27:                                               ; preds = %22
  %28 = load ptr, ptr %8, align 8
  %29 = load ptr, ptr %28, align 8
  %30 = getelementptr inbounds nuw i8, ptr %29, i64 64
  %31 = getelementptr inbounds nuw i8, ptr %28, i64 8
  %32 = load ptr, ptr %31, align 8
  %33 = icmp ugt ptr %30, %32
  br i1 %33, label %34, label %36, !prof !6

34:                                               ; preds = %27
  %35 = tail call ptr @tcg_malloc_internal(ptr noundef nonnull %28, i32 noundef 64) #9
  br label %tcg_malloc.exit.i

36:                                               ; preds = %27
  store ptr %30, ptr %28, align 8
  br label %tcg_malloc.exit.i

tcg_malloc.exit.i:                                ; preds = %36, %34
  %.0.i.i = phi ptr [ %35, %34 ], [ %29, %36 ]
  store ptr %.0.i.i, ptr %24, align 8
  br label %37

37:                                               ; preds = %tcg_malloc.exit.i, %22
  %.0.i = phi ptr [ %.0.i.i, %tcg_malloc.exit.i ], [ %25, %22 ]
  %38 = getelementptr inbounds nuw i8, ptr %.0.i, i64 16
  store ptr %7, ptr %38, align 8
  %39 = getelementptr inbounds nuw i8, ptr %.0.i, i64 8
  store ptr %7, ptr %39, align 8
  %40 = getelementptr inbounds nuw i8, ptr %.0.i, i64 24
  store ptr null, ptr %40, align 8
  %41 = getelementptr inbounds nuw i8, ptr %.0.i, i64 32
  store ptr %40, ptr %41, align 8
  %42 = load i64, ptr %7, align 8
  %43 = and i64 %42, 30064771072
  %44 = icmp eq i64 %43, 17179869184
  br i1 %44, label %45, label %56

45:                                               ; preds = %37
  store i8 1, ptr %.0.i, align 8
  %46 = getelementptr inbounds nuw i8, ptr %7, i64 8
  %47 = load i64, ptr %46, align 8
  %48 = getelementptr inbounds nuw i8, ptr %.0.i, i64 40
  store i64 %47, ptr %48, align 8
  %49 = getelementptr inbounds nuw i8, ptr %.0.i, i64 48
  store i64 %47, ptr %49, align 8
  %50 = load i64, ptr %46, align 8
  %.lobit.i.i = ashr i64 %50, 63
  %51 = xor i64 %.lobit.i.i, %50
  %52 = tail call range(i64 0, 65) i64 @llvm.ctlz.i64(i64 %51, i1 false)
  %53 = add nuw nsw i64 %52, 4294967295
  %54 = and i64 %53, 4294967295
  %55 = ashr exact i64 -9223372036854775808, %54
  br label %.sink.split.i

56:                                               ; preds = %37
  store i8 0, ptr %.0.i, align 8
  %57 = getelementptr inbounds nuw i8, ptr %.0.i, i64 48
  store i64 -1, ptr %57, align 8
  br label %.sink.split.i

.sink.split.i:                                    ; preds = %56, %45
  %.sink.i = phi i64 [ %55, %45 ], [ 0, %56 ]
  %58 = getelementptr inbounds nuw i8, ptr %.0.i, i64 56
  store i64 %.sink.i, ptr %58, align 8
  br label %init_ts_info.exit

init_ts_info.exit:                                ; preds = %2, %.sink.split.i
  ret i64 %11
}